; Function Attrs: mustprogress uwtable
define void @Z3_ast_vector_inc_ref(ptr noundef %0, ptr noundef %1) local_unnamed_addr #3 personality ptr @__gxx_personality_v0 {
  %3 = atomicrmw xchg ptr @g_z3_log_enabled, i8 0 seq_cst, align 1
  %4 = trunc i8 %3 to i1
  br i1 %4, label %5, label %18

5:                                                ; preds = %2
  invoke void @_Z25log_Z3_ast_vector_inc_refP11_Z3_contextP14_Z3_ast_vector(ptr noundef %0, ptr noundef %1)
          to label %18 unwind label %.thread

.thread:                                          ; preds = %5
  %6 = landingpad { ptr, i32 }
          cleanup
          catch ptr @_ZTI12z3_exception
  %7 = extractvalue { ptr, i32 } %6, 1
  br label %11

8:                                                ; preds = %18
  %9 = landingpad { ptr, i32 }
          cleanup
          catch ptr @_ZTI12z3_exception
  %10 = extractvalue { ptr, i32 } %9, 1
  br i1 %4, label %11, label %_ZN10z3_log_ctxD2Ev.exit, !prof !163

11:                                               ; preds = %.thread, %8
  %12 = phi i32 [ %7, %.thread ], [ %10, %8 ]
  %13 = phi { ptr, i32 } [ %6, %.thread ], [ %9, %8 ]
  store atomic i8 1, ptr @g_z3_log_enabled seq_cst, align 1
  br label %_ZN10z3_log_ctxD2Ev.exit

_ZN10z3_log_ctxD2Ev.exit:                         ; preds = %8, %11
  %14 = phi i32 [ %10, %8 ], [ %12, %11 ]
  %15 = phi { ptr, i32 } [ %9, %8 ], [ %13, %11 ]
  %16 = tail call i32 @llvm.eh.typeid.for.p0(ptr nonnull @_ZTI12z3_exception) #21
  %17 = icmp eq i32 %14, %16
  br i1 %17, label %22, label %28

18:                                               ; preds = %5, %2
  %19 = getelementptr inbounds nuw i8, ptr %0, i64 1568
  store i32 0, ptr %19, align 8, !tbaa !3
  invoke void @_ZN3api6object7inc_refEv(ptr noundef nonnull align 8 dereferenceable(24) %1)
          to label %20 unwind label %8

20:                                               ; preds = %18
  br i1 %4, label %21, label %_ZN10z3_log_ctxD2Ev.exit11, !prof !162

21:                                               ; preds = %20
  store atomic i8 1, ptr @g_z3_log_enabled seq_cst, align 1
  br label %_ZN10z3_log_ctxD2Ev.exit11

22:                                               ; preds = %_ZN10z3_log_ctxD2Ev.exit
  %23 = extractvalue { ptr, i32 } %15, 0
  %24 = tail call ptr @__cxa_begin_catch(ptr %23) #21
  invoke void @_ZN3api7context16handle_exceptionER12z3_exception(ptr noundef nonnull align 8 dereferenceable(3056) %0, ptr noundef nonnull align 8 dereferenceable(8) %24)
          to label %25 unwind label %26

25:                                               ; preds = %22
  tail call void @__cxa_end_catch()
  br label %_ZN10z3_log_ctxD2Ev.exit11

26:                                               ; preds = %22
  %27 = landingpad { ptr, i32 }
          cleanup
  invoke void @__cxa_end_catch()
          to label %28 unwind label %29

_ZN10z3_log_ctxD2Ev.exit11:                       ; preds = %21, %20, %25
  ret void

28:                                               ; preds = %26, %_ZN10z3_log_ctxD2Ev.exit
  %.merged = phi { ptr, i32 } [ %15, %_ZN10z3_log_ctxD2Ev.exit ], [ %27, %26 ]
  resume { ptr, i32 } %.merged

29:                                               ; preds = %26
  %30 = landingpad { ptr, i32 }
          catch ptr null
  %31 = extractvalue { ptr, i32 } %30, 0
  tail call void @__clang_call_terminate(ptr %31) #22
  unreachable
}